target datalayout = "e-m:e-p270:32:32-p271:32:32-p272:64:64-i64:64-i128:128-f80:128-n8:16:32:64-S128"
target triple = "x86_64-pc-linux-gnu"

%struct.edata_list_active_t = type { %struct.anon.17 }
%struct.anon.17 = type { ptr }
%struct.edata_s = type { i64, ptr, %union.anon.11, ptr, i64, %union.anon.12, %union.anon.15 }
%union.anon.11 = type { i64 }
%union.anon.12 = type { %union.anon.14 }
%union.anon.14 = type { %struct.edata_heap_link_t }
%struct.edata_heap_link_t = type { %struct.phn_link_s }
%struct.phn_link_s = type { ptr, ptr, ptr }
%union.anon.15 = type { %struct.slab_data_s }
%struct.slab_data_s = type { [8 x i64] }
%struct.anon.13 = type { ptr, ptr }

; Function Attrs: inlinehint nounwind uwtable
define internal void @edata_list_active_append(ptr noundef %0, ptr noundef %1) #5 {
  %3 = alloca ptr, align 8
  %4 = alloca ptr, align 8
  store ptr %0, ptr %3, align 8, !tbaa !25
  store ptr %1, ptr %4, align 8, !tbaa !76
  br label %5

5:                                                ; preds = %2
  %6 = load ptr, ptr %4, align 8, !tbaa !76
  %7 = load ptr, ptr %4, align 8, !tbaa !76
  %8 = getelementptr inbounds nuw %struct.edata_s, ptr %7, i32 0, i32 5
  %9 = getelementptr inbounds nuw %struct.anon.13, ptr %8, i32 0, i32 0
  store ptr %6, ptr %9, align 8, !tbaa !79
  %10 = load ptr, ptr %4, align 8, !tbaa !76
  %11 = load ptr, ptr %4, align 8, !tbaa !76
  %12 = getelementptr inbounds nuw %struct.edata_s, ptr %11, i32 0, i32 5
  %13 = getelementptr inbounds nuw %struct.anon.13, ptr %12, i32 0, i32 1
  store ptr %10, ptr %13, align 8, !tbaa !79
  br label %14

14:                                               ; preds = %5
  br label %15

15:                                               ; preds = %14
  %16 = load ptr, ptr %3, align 8, !tbaa !25
  %17 = getelementptr inbounds nuw %struct.edata_list_active_t, ptr %16, i32 0, i32 0
  %18 = getelementptr inbounds nuw %struct.anon.17, ptr %17, i32 0, i32 0
  %19 = load ptr, ptr %18, align 8, !tbaa !78
  %20 = icmp eq ptr %19, null
  br i1 %20, label %77, label %21

21:                                               ; preds = %15
  br label %22

22:                                               ; preds = %21
  %23 = load ptr, ptr %3, align 8, !tbaa !25
  %24 = getelementptr inbounds nuw %struct.edata_list_active_t, ptr %23, i32 0, i32 0
  %25 = getelementptr inbounds nuw %struct.anon.17, ptr %24, i32 0, i32 0
  %26 = load ptr, ptr %25, align 8, !tbaa !78
  %27 = getelementptr inbounds nuw %struct.edata_s, ptr %26, i32 0, i32 5
  %28 = getelementptr inbounds nuw %struct.anon.13, ptr %27, i32 0, i32 1
  %29 = load ptr, ptr %28, align 8, !tbaa !79
  %30 = load ptr, ptr %4, align 8, !tbaa !76
  %31 = getelementptr inbounds nuw %struct.edata_s, ptr %30, i32 0, i32 5
  %32 = getelementptr inbounds nuw %struct.anon.13, ptr %31, i32 0, i32 1
  %33 = load ptr, ptr %32, align 8, !tbaa !79
  %34 = getelementptr inbounds nuw %struct.edata_s, ptr %33, i32 0, i32 5
  %35 = getelementptr inbounds nuw %struct.anon.13, ptr %34, i32 0, i32 0
  store ptr %29, ptr %35, align 8, !tbaa !79
  %36 = load ptr, ptr %4, align 8, !tbaa !76
  %37 = getelementptr inbounds nuw %struct.edata_s, ptr %36, i32 0, i32 5
  %38 = getelementptr inbounds nuw %struct.anon.13, ptr %37, i32 0, i32 1
  %39 = load ptr, ptr %38, align 8, !tbaa !79
  %40 = load ptr, ptr %3, align 8, !tbaa !25
  %41 = getelementptr inbounds nuw %struct.edata_list_active_t, ptr %40, i32 0, i32 0
  %42 = getelementptr inbounds nuw %struct.anon.17, ptr %41, i32 0, i32 0
  %43 = load ptr, ptr %42, align 8, !tbaa !78
  %44 = getelementptr inbounds nuw %struct.edata_s, ptr %43, i32 0, i32 5
  %45 = getelementptr inbounds nuw %struct.anon.13, ptr %44, i32 0, i32 1
  store ptr %39, ptr %45, align 8, !tbaa !79
  %46 = load ptr, ptr %4, align 8, !tbaa !76
  %47 = getelementptr inbounds nuw %struct.edata_s, ptr %46, i32 0, i32 5
  %48 = getelementptr inbounds nuw %struct.anon.13, ptr %47, i32 0, i32 1
  %49 = load ptr, ptr %48, align 8, !tbaa !79
  %50 = getelementptr inbounds nuw %struct.edata_s, ptr %49, i32 0, i32 5
  %51 = getelementptr inbounds nuw %struct.anon.13, ptr %50, i32 0, i32 0
  %52 = load ptr, ptr %51, align 8, !tbaa !79
  %53 = load ptr, ptr %4, align 8, !tbaa !76
  %54 = getelementptr inbounds nuw %struct.edata_s, ptr %53, i32 0, i32 5
  %55 = getelementptr inbounds nuw %struct.anon.13, ptr %54, i32 0, i32 1
  store ptr %52, ptr %55, align 8, !tbaa !79
  %56 = load ptr, ptr %3, align 8, !tbaa !25
  %57 = getelementptr inbounds nuw %struct.edata_list_active_t, ptr %56, i32 0, i32 0
  %58 = getelementptr inbounds nuw %struct.anon.17, ptr %57, i32 0, i32 0
  %59 = load ptr, ptr %58, align 8, !tbaa !78
  %60 = load ptr, ptr %3, align 8, !tbaa !25
  %61 = getelementptr inbounds nuw %struct.edata_list_active_t, ptr %60, i32 0, i32 0
  %62 = getelementptr inbounds nuw %struct.anon.17, ptr %61, i32 0, i32 0
  %63 = load ptr, ptr %62, align 8, !tbaa !78
  %64 = getelementptr inbounds nuw %struct.edata_s, ptr %63, i32 0, i32 5
  %65 = getelementptr inbounds nuw %struct.anon.13, ptr %64, i32 0, i32 1
  %66 = load ptr, ptr %65, align 8, !tbaa !79
  %67 = getelementptr inbounds nuw %struct.edata_s, ptr %66, i32 0, i32 5
  %68 = getelementptr inbounds nuw %struct.anon.13, ptr %67, i32 0, i32 0
  store ptr %59, ptr %68, align 8, !tbaa !79
  %69 = load ptr, ptr %4, align 8, !tbaa !76
  %70 = load ptr, ptr %4, align 8, !tbaa !76
  %71 = getelementptr inbounds nuw %struct.edata_s, ptr %70, i32 0, i32 5
  %72 = getelementptr inbounds nuw %struct.anon.13, ptr %71, i32 0, i32 1
  %73 = load ptr, ptr %72, align 8, !tbaa !79
  %74 = getelementptr inbounds nuw %struct.edata_s, ptr %73, i32 0, i32 5
  %75 = getelementptr inbounds nuw %struct.anon.13, ptr %74, i32 0, i32 0
  store ptr %69, ptr %75, align 8, !tbaa !79
  br label %76

76:                                               ; preds = %22
  br label %77

77:                                               ; preds = %76, %15
  %78 = load ptr, ptr %4, align 8, !tbaa !76
  %79 = getelementptr inbounds nuw %struct.edata_s, ptr %78, i32 0, i32 5
  %80 = getelementptr inbounds nuw %struct.anon.13, ptr %79, i32 0, i32 0
  %81 = load ptr, ptr %80, align 8, !tbaa !79
  %82 = load ptr, ptr %3, align 8, !tbaa !25
  %83 = getelementptr inbounds nuw %struct.edata_list_active_t, ptr %82, i32 0, i32 0
  %84 = getelementptr inbounds nuw %struct.anon.17, ptr %83, i32 0, i32 0
  store ptr %81, ptr %84, align 8, !tbaa !78
  br label %85

85:                                               ; preds = %77
  ret void
}

; Function Attrs: inlinehint nounwind uwtable
define internal void @edata_list_active_init(ptr noundef %0) #5 {
  %2 = alloca ptr, align 8
  store ptr %0, ptr %2, align 8, !tbaa !25
  br label %3

3:                                                ; preds = %1
  %4 = load ptr, ptr %2, align 8, !tbaa !25
  %5 = getelementptr inbounds nuw %struct.edata_list_active_t, ptr %4, i32 0, i32 0
  %6 = getelementptr inbounds nuw %struct.anon.17, ptr %5, i32 0, i32 0
  store ptr null, ptr %6, align 8, !tbaa !78
  br label %7

7:                                                ; preds = %3
  ret void
}

; Function Attrs: nounwind uwtable
define internal void @hpa_dalloc(ptr noundef %0, ptr noundef %1, ptr noundef %2, ptr noundef %3) #0 {
  %5 = alloca ptr, align 8
  %6 = alloca ptr, align 8
  %7 = alloca ptr, align 8
  %8 = alloca ptr, align 8
  %9 = alloca %struct.edata_list_active_t, align 8
  store ptr %0, ptr %5, align 8, !tbaa !70
  store ptr %1, ptr %6, align 8, !tbaa !72
  store ptr %2, ptr %7, align 8, !tbaa !76
  store ptr %3, ptr %8, align 8, !tbaa !74
  br label %10

10:                                               ; preds = %4
  br label %11

11:                                               ; preds = %10
  call void @llvm.lifetime.start.p0(i64 8, ptr %9) #7
  call void @edata_list_active_init(ptr noundef %9)
  %12 = load ptr, ptr %7, align 8, !tbaa !76
  call void @edata_list_active_append(ptr noundef %9, ptr noundef %12)
  %13 = load ptr, ptr %5, align 8, !tbaa !70
  %14 = load ptr, ptr %6, align 8, !tbaa !72
  %15 = load ptr, ptr %8, align 8, !tbaa !74
  call void @hpa_dalloc_batch(ptr noundef %13, ptr noundef %14, ptr noundef %9, ptr noundef %15)
  call void @llvm.lifetime.end.p0(i64 8, ptr %9) #7
  ret void
}